target datalayout = "e-m:e-p270:32:32-p271:32:32-p272:64:64-i64:64-i128:128-f80:128-n8:16:32:64-S128"
target triple = "x86_64-pc-linux-gnu"

; Function Attrs: mustprogress nounwind uwtable
define void @_Z9WideToUtfPKwPcm(ptr noundef %0, ptr noundef %1, i64 noundef %2) #1 {
  %4 = alloca ptr, align 8
  %5 = alloca ptr, align 8
  %6 = alloca i64, align 8
  %7 = alloca i64, align 8
  %8 = alloca i32, align 4
  store ptr %0, ptr %4, align 8
  store ptr %1, ptr %5, align 8
  store i64 %2, ptr %6, align 8
  %9 = load i64, ptr %6, align 8
  store i64 %9, ptr %7, align 8
  %10 = load i64, ptr %7, align 8
  %11 = add nsw i64 %10, -1
  store i64 %11, ptr %7, align 8
  br label %12

12:                                               ; preds = %142, %3
  %13 = load ptr, ptr %4, align 8
  %14 = load i32, ptr %13, align 4
  %15 = icmp ne i32 %14, 0
  br i1 %15, label %16, label %20

16:                                               ; preds = %12
  %17 = load i64, ptr %7, align 8
  %18 = add nsw i64 %17, -1
  store i64 %18, ptr %7, align 8
  %19 = icmp sge i64 %18, 0
  br label %20

20:                                               ; preds = %16, %12
  %21 = phi i1 [ false, %12 ], [ %19, %16 ]
  br i1 %21, label %22, label %143

22:                                               ; preds = %20
  %23 = load ptr, ptr %4, align 8
  %24 = getelementptr inbounds i32, ptr %23, i32 1
  store ptr %24, ptr %4, align 8
  %25 = load i32, ptr %23, align 4
  store i32 %25, ptr %8, align 4
  %26 = load i32, ptr %8, align 4
  %27 = icmp ult i32 %26, 128
  br i1 %27, label %28, label %33

28:                                               ; preds = %22
  %29 = load i32, ptr %8, align 4
  %30 = trunc i32 %29 to i8
  %31 = load ptr, ptr %5, align 8
  %32 = getelementptr inbounds i8, ptr %31, i32 1
  store ptr %32, ptr %5, align 8
  store i8 %30, ptr %31, align 1
  br label %142

33:                                               ; preds = %22
  %34 = load i32, ptr %8, align 4
  %35 = icmp ult i32 %34, 2048
  br i1 %35, label %36, label %53

36:                                               ; preds = %33
  %37 = load i64, ptr %7, align 8
  %38 = add nsw i64 %37, -1
  store i64 %38, ptr %7, align 8
  %39 = icmp sge i64 %38, 0
  br i1 %39, label %40, label %53

40:                                               ; preds = %36
  %41 = load i32, ptr %8, align 4
  %42 = lshr i32 %41, 6
  %43 = or i32 192, %42
  %44 = trunc i32 %43 to i8
  %45 = load ptr, ptr %5, align 8
  %46 = getelementptr inbounds i8, ptr %45, i32 1
  store ptr %46, ptr %5, align 8
  store i8 %44, ptr %45, align 1
  %47 = load i32, ptr %8, align 4
  %48 = and i32 %47, 63
  %49 = or i32 128, %48
  %50 = trunc i32 %49 to i8
  %51 = load ptr, ptr %5, align 8
  %52 = getelementptr inbounds i8, ptr %51, i32 1
  store ptr %52, ptr %5, align 8
  store i8 %50, ptr %51, align 1
  br label %141

53:                                               ; preds = %36, %33
  %54 = load i32, ptr %8, align 4
  %55 = icmp uge i32 %54, 55296
  br i1 %55, label %56, label %78

56:                                               ; preds = %53
  %57 = load i32, ptr %8, align 4
  %58 = icmp ule i32 %57, 56319
  br i1 %58, label %59, label %78

59:                                               ; preds = %56
  %60 = load ptr, ptr %4, align 8
  %61 = load i32, ptr %60, align 4
  %62 = icmp sge i32 %61, 56320
  br i1 %62, label %63, label %78

63:                                               ; preds = %59
  %64 = load ptr, ptr %4, align 8
  %65 = load i32, ptr %64, align 4
  %66 = icmp sle i32 %65, 57343
  br i1 %66, label %67, label %78

67:                                               ; preds = %63
  %68 = load i32, ptr %8, align 4
  %69 = sub i32 %68, 55296
  %70 = shl i32 %69, 10
  %71 = load ptr, ptr %4, align 8
  %72 = load i32, ptr %71, align 4
  %73 = sub nsw i32 %72, 56320
  %74 = add i32 %70, %73
  %75 = add i32 %74, 65536
  store i32 %75, ptr %8, align 4
  %76 = load ptr, ptr %4, align 8
  %77 = getelementptr inbounds i32, ptr %76, i32 1
  store ptr %77, ptr %4, align 8
  br label %78

78:                                               ; preds = %67, %63, %59, %56, %53
  %79 = load i32, ptr %8, align 4
  %80 = icmp ult i32 %79, 65536
  br i1 %80, label %81, label %105

81:                                               ; preds = %78
  %82 = load i64, ptr %7, align 8
  %83 = sub nsw i64 %82, 2
  store i64 %83, ptr %7, align 8
  %84 = icmp sge i64 %83, 0
  br i1 %84, label %85, label %105

85:                                               ; preds = %81
  %86 = load i32, ptr %8, align 4
  %87 = lshr i32 %86, 12
  %88 = or i32 224, %87
  %89 = trunc i32 %88 to i8
  %90 = load ptr, ptr %5, align 8
  %91 = getelementptr inbounds i8, ptr %90, i32 1
  store ptr %91, ptr %5, align 8
  store i8 %89, ptr %90, align 1
  %92 = load i32, ptr %8, align 4
  %93 = lshr i32 %92, 6
  %94 = and i32 %93, 63
  %95 = or i32 128, %94
  %96 = trunc i32 %95 to i8
  %97 = load ptr, ptr %5, align 8
  %98 = getelementptr inbounds i8, ptr %97, i32 1
  store ptr %98, ptr %5, align 8
  store i8 %96, ptr %97, align 1
  %99 = load i32, ptr %8, align 4
  %100 = and i32 %99, 63
  %101 = or i32 128, %100
  %102 = trunc i32 %101 to i8
  %103 = load ptr, ptr %5, align 8
  %104 = getelementptr inbounds i8, ptr %103, i32 1
  store ptr %104, ptr %5, align 8
  store i8 %102, ptr %103, align 1
  br label %140

105:                                              ; preds = %81, %78
  %106 = load i32, ptr %8, align 4
  %107 = icmp ult i32 %106, 2097152
  br i1 %107, label %108, label %139

108:                                              ; preds = %105
  %109 = load i64, ptr %7, align 8
  %110 = sub nsw i64 %109, 3
  store i64 %110, ptr %7, align 8
  %111 = icmp sge i64 %110, 0
  br i1 %111, label %112, label %139

112:                                              ; preds = %108
  %113 = load i32, ptr %8, align 4
  %114 = lshr i32 %113, 18
  %115 = or i32 240, %114
  %116 = trunc i32 %115 to i8
  %117 = load ptr, ptr %5, align 8
  %118 = getelementptr inbounds i8, ptr %117, i32 1
  store ptr %118, ptr %5, align 8
  store i8 %116, ptr %117, align 1
  %119 = load i32, ptr %8, align 4
  %120 = lshr i32 %119, 12
  %121 = and i32 %120, 63
  %122 = or i32 128, %121
  %123 = trunc i32 %122 to i8
  %124 = load ptr, ptr %5, align 8
  %125 = getelementptr inbounds i8, ptr %124, i32 1
  store ptr %125, ptr %5, align 8
  store i8 %123, ptr %124, align 1
  %126 = load i32, ptr %8, align 4
  %127 = lshr i32 %126, 6
  %128 = and i32 %127, 63
  %129 = or i32 128, %128
  %130 = trunc i32 %129 to i8
  %131 = load ptr, ptr %5, align 8
  %132 = getelementptr inbounds i8, ptr %131, i32 1
  store ptr %132, ptr %5, align 8
  store i8 %130, ptr %131, align 1
  %133 = load i32, ptr %8, align 4
  %134 = and i32 %133, 63
  %135 = or i32 128, %134
  %136 = trunc i32 %135 to i8
  %137 = load ptr, ptr %5, align 8
  %138 = getelementptr inbounds i8, ptr %137, i32 1
  store ptr %138, ptr %5, align 8
  store i8 %136, ptr %137, align 1
  br label %139

139:                                              ; preds = %112, %108, %105
  br label %140

140:                                              ; preds = %139, %85
  br label %141

141:                                              ; preds = %140, %40
  br label %142

142:                                              ; preds = %141, %28
  br label %12, !llvm.loop !9

143:                                              ; preds = %20
  %144 = load ptr, ptr %5, align 8
  store i8 0, ptr %144, align 1
  ret void
}