; Function Attrs: mustprogress nofree norecurse nosync nounwind memory(argmem: readwrite) uwtable
define void @_Z9WideToUtfPKwPcm(ptr noundef readonly captures(none) %0, ptr noundef writeonly captures(none) %1, i64 noundef %2) local_unnamed_addr #4 {
  %4 = load i32, ptr %0, align 4
  %.not76 = icmp eq i32 %4, 0
  br i1 %.not76, label %.critedge, label %.lr.ph.preheader

.lr.ph.preheader:                                 ; preds = %3
  %5 = add nsw i64 %2, -1
  br label %.lr.ph

.lr.ph:                                           ; preds = %.lr.ph.preheader, %79
  %6 = phi i32 [ %80, %79 ], [ %4, %.lr.ph.preheader ]
  %.04079 = phi i64 [ %.1, %79 ], [ %5, %.lr.ph.preheader ]
  %.04178 = phi ptr [ %.142, %79 ], [ %0, %.lr.ph.preheader ]
  %.04477 = phi ptr [ %.145, %79 ], [ %1, %.lr.ph.preheader ]
  %7 = add nsw i64 %.04079, -1
  %8 = icmp sgt i64 %.04079, 0
  br i1 %8, label %9, label %.critedge

9:                                                ; preds = %.lr.ph
  %10 = getelementptr inbounds nuw i8, ptr %.04178, i64 4
  %11 = icmp ult i32 %6, 128
  br i1 %11, label %12, label %15

12:                                               ; preds = %9
  %13 = trunc nuw nsw i32 %6 to i8
  %14 = getelementptr inbounds nuw i8, ptr %.04477, i64 1
  store i8 %13, ptr %.04477, align 1
  br label %79

15:                                               ; preds = %9
  %16 = icmp ult i32 %6, 2048
  br i1 %16, label %17, label %28

17:                                               ; preds = %15
  %.not55 = icmp eq i64 %.04079, 1
  br i1 %.not55, label %28, label %18

18:                                               ; preds = %17
  %19 = add nsw i64 %.04079, -2
  %20 = lshr i32 %6, 6
  %21 = trunc nuw i32 %20 to i8
  %22 = or disjoint i8 %21, -64
  %23 = getelementptr inbounds nuw i8, ptr %.04477, i64 1
  store i8 %22, ptr %.04477, align 1
  %24 = trunc i32 %6 to i8
  %25 = and i8 %24, 63
  %26 = or disjoint i8 %25, -128
  %27 = getelementptr inbounds nuw i8, ptr %.04477, i64 2
  store i8 %26, ptr %23, align 1
  br label %79

28:                                               ; preds = %17, %15
  %.2 = phi i64 [ -1, %17 ], [ %7, %15 ]
  %29 = and i32 %6, -1024
  %or.cond = icmp eq i32 %29, 55296
  br i1 %or.cond, label %30, label %37

30:                                               ; preds = %28
  %31 = load i32, ptr %10, align 4
  %32 = and i32 %31, -1024
  %or.cond56 = icmp eq i32 %32, 56320
  br i1 %or.cond56, label %.thread63, label %.thread

.thread63:                                        ; preds = %30
  %33 = shl nuw nsw i32 %6, 10
  %34 = add nsw i32 %33, -56613888
  %35 = add nuw nsw i32 %34, %31
  %36 = getelementptr inbounds nuw i8, ptr %.04178, i64 8
  br label %.thread66

37:                                               ; preds = %28
  %38 = icmp ult i32 %6, 65536
  br i1 %38, label %.thread, label %56

.thread:                                          ; preds = %30, %37
  %39 = icmp sgt i64 %.2, 1
  br i1 %39, label %41, label %.thread66.thread

.thread66.thread:                                 ; preds = %.thread
  %40 = add nsw i64 %.2, -5
  br label %79

41:                                               ; preds = %.thread
  %42 = add nsw i64 %.2, -2
  %43 = lshr i32 %6, 12
  %44 = trunc nuw i32 %43 to i8
  %45 = or disjoint i8 %44, -32
  %46 = getelementptr inbounds nuw i8, ptr %.04477, i64 1
  store i8 %45, ptr %.04477, align 1
  %47 = lshr i32 %6, 6
  %48 = trunc i32 %47 to i8
  %49 = and i8 %48, 63
  %50 = or disjoint i8 %49, -128
  %51 = getelementptr inbounds nuw i8, ptr %.04477, i64 2
  store i8 %50, ptr %46, align 1
  %52 = trunc i32 %6 to i8
  %53 = and i8 %52, 63
  %54 = or disjoint i8 %53, -128
  %55 = getelementptr inbounds nuw i8, ptr %.04477, i64 3
  store i8 %54, ptr %51, align 1
  br label %79

56:                                               ; preds = %37
  %57 = icmp ult i32 %6, 2097152
  br i1 %57, label %.thread66, label %79

.thread66:                                        ; preds = %.thread63, %56
  %.2436071 = phi ptr [ %10, %56 ], [ %36, %.thread63 ]
  %.06170 = phi i32 [ %6, %56 ], [ %35, %.thread63 ]
  %58 = add nsw i64 %.2, -3
  %59 = icmp sgt i64 %.2, 2
  br i1 %59, label %60, label %79

60:                                               ; preds = %.thread66
  %61 = lshr i32 %.06170, 18
  %62 = trunc nuw i32 %61 to i8
  %63 = or disjoint i8 %62, -16
  %64 = getelementptr inbounds nuw i8, ptr %.04477, i64 1
  store i8 %63, ptr %.04477, align 1
  %65 = lshr i32 %.06170, 12
  %66 = trunc i32 %65 to i8
  %67 = and i8 %66, 63
  %68 = or disjoint i8 %67, -128
  %69 = getelementptr inbounds nuw i8, ptr %.04477, i64 2
  store i8 %68, ptr %64, align 1
  %70 = lshr i32 %.06170, 6
  %71 = trunc i32 %70 to i8
  %72 = and i8 %71, 63
  %73 = or disjoint i8 %72, -128
  %74 = getelementptr inbounds nuw i8, ptr %.04477, i64 3
  store i8 %73, ptr %69, align 1
  %75 = trunc i32 %.06170 to i8
  %76 = and i8 %75, 63
  %77 = or disjoint i8 %76, -128
  %78 = getelementptr inbounds nuw i8, ptr %.04477, i64 4
  store i8 %77, ptr %74, align 1
  br label %79

79:                                               ; preds = %.thread66.thread, %18, %56, %.thread66, %60, %41, %12
  %.145 = phi ptr [ %14, %12 ], [ %27, %18 ], [ %55, %41 ], [ %78, %60 ], [ %.04477, %.thread66 ], [ %.04477, %56 ], [ %.04477, %.thread66.thread ]
  %.142 = phi ptr [ %10, %12 ], [ %10, %18 ], [ %10, %41 ], [ %.2436071, %60 ], [ %.2436071, %.thread66 ], [ %10, %56 ], [ %10, %.thread66.thread ]
  %.1 = phi i64 [ %7, %12 ], [ %19, %18 ], [ %42, %41 ], [ %58, %60 ], [ %58, %.thread66 ], [ %.2, %56 ], [ %40, %.thread66.thread ]
  %80 = load i32, ptr %.142, align 4
  %.not = icmp eq i32 %80, 0
  br i1 %.not, label %.critedge, label %.lr.ph, !llvm.loop !9

.critedge:                                        ; preds = %.lr.ph, %79, %3
  %.044.lcssa = phi ptr [ %1, %3 ], [ %.145, %79 ], [ %.04477, %.lr.ph ]
  store i8 0, ptr %.044.lcssa, align 1
  ret void
}